target datalayout = "e-m:e-p270:32:32-p271:32:32-p272:64:64-i64:64-i128:128-f80:128-n8:16:32:64-S128"
target triple = "x86_64-pc-linux-gnu"

%struct.pointf_s = type { double, double }
%struct.Agobj_s = type { %struct.Agtag_s, ptr }
%struct.Agtag_s = type { i32, i64 }
%struct.Agnodeinfo_t = type { %struct.Agrec_s, ptr, ptr, %struct.pointf_s, double, double, %struct.boxf, double, double, double, double, double, ptr, ptr, ptr, i8, i8, i8, i8, i32, i32, i32, ptr, double, i8, i8, ptr, ptr, i8, i64, i8, i8, i8, ptr, ptr, %struct.elist, %struct.elist, %struct.elist, %struct.elist, %struct.elist, ptr, i32, ptr, i32, i32, double, %struct.elist, %struct.elist, %struct.elist, %struct.elist, ptr, i32, i32, i32, [1 x double] }
%struct.Agrec_s = type { ptr, ptr }
%struct.boxf = type { %struct.pointf_s, %struct.pointf_s }
%struct.elist = type { ptr, i64 }

@Ndim = external global i16, align 2
@.str = private unnamed_addr constant [12 x i8] c"|edgelabel|\00", align 1
@stderr = external global ptr, align 8
@.str.11 = private unnamed_addr constant [58 x i8] c"integer overflow when trying to allocate %zu * %zu bytes\0A\00", align 1
@.str.12 = private unnamed_addr constant [49 x i8] c"out of memory when trying to allocate %zu bytes\0A\00", align 1

; Function Attrs: inlinehint nounwind uwtable
define internal zeroext i1 @startswith(ptr noundef %0, ptr noundef %1) #2 {
  %3 = alloca ptr, align 8
  %4 = alloca ptr, align 8
  store ptr %0, ptr %3, align 8, !tbaa !50
  store ptr %1, ptr %4, align 8, !tbaa !50
  %5 = load ptr, ptr %3, align 8, !tbaa !50
  %6 = load ptr, ptr %4, align 8, !tbaa !50
  %7 = load ptr, ptr %4, align 8, !tbaa !50
  %8 = call i64 @strlen(ptr noundef %7) #16
  %9 = call i32 @strncmp(ptr noundef %5, ptr noundef %6, i64 noundef %8) #16
  %10 = icmp eq i32 %9, 0
  ret i1 %10
}

; Function Attrs: inlinehint nounwind uwtable
define internal ptr @gv_calloc(i64 noundef %0, i64 noundef %1) #2 {
  %3 = alloca i64, align 8
  %4 = alloca i64, align 8
  %5 = alloca ptr, align 8
  store i64 %0, ptr %3, align 8, !tbaa !46
  store i64 %1, ptr %4, align 8, !tbaa !46
  %6 = load i64, ptr %3, align 8, !tbaa !46
  %7 = icmp ugt i64 %6, 0
  br i1 %7, label %8, label %18

8:                                                ; preds = %2
  %9 = load i64, ptr %3, align 8, !tbaa !46
  %10 = udiv i64 -1, %9
  %11 = load i64, ptr %4, align 8, !tbaa !46
  %12 = icmp ult i64 %10, %11
  br i1 %12, label %13, label %18

13:                                               ; preds = %8
  %14 = load ptr, ptr @stderr, align 8, !tbaa !47
  %15 = load i64, ptr %3, align 8, !tbaa !46
  %16 = load i64, ptr %4, align 8, !tbaa !46
  %17 = call i32 (ptr, ptr, ...) @fprintf(ptr noundef %14, ptr noundef @.str.11, i64 noundef %15, i64 noundef %16) #13
  call void @graphviz_exit(i32 noundef 1) #14
  unreachable

18:                                               ; preds = %8, %2
  call void @llvm.lifetime.start.p0(i64 8, ptr %5) #13
  %19 = load i64, ptr %3, align 8, !tbaa !46
  %20 = load i64, ptr %4, align 8, !tbaa !46
  %21 = call noalias ptr @calloc(i64 noundef %19, i64 noundef %20) #15
  store ptr %21, ptr %5, align 8, !tbaa !49
  %22 = load i64, ptr %3, align 8, !tbaa !46
  %23 = icmp ugt i64 %22, 0
  br i1 %23, label %24, label %36

24:                                               ; preds = %18
  %25 = load i64, ptr %4, align 8, !tbaa !46
  %26 = icmp ugt i64 %25, 0
  br i1 %26, label %27, label %36

27:                                               ; preds = %24
  %28 = load ptr, ptr %5, align 8, !tbaa !49
  %29 = icmp eq ptr %28, null
  br i1 %29, label %30, label %36

30:                                               ; preds = %27
  %31 = load ptr, ptr @stderr, align 8, !tbaa !47
  %32 = load i64, ptr %3, align 8, !tbaa !46
  %33 = load i64, ptr %4, align 8, !tbaa !46
  %34 = mul i64 %32, %33
  %35 = call i32 (ptr, ptr, ...) @fprintf(ptr noundef %31, ptr noundef @.str.12, i64 noundef %34) #13
  call void @graphviz_exit(i32 noundef 1) #14
  unreachable

36:                                               ; preds = %27, %24, %18
  %37 = load ptr, ptr %5, align 8, !tbaa !49
  call void @llvm.lifetime.end.p0(i64 8, ptr %5) #13
  ret ptr %37
}

; Function Attrs: nounwind uwtable
define ptr @getSizes(ptr noundef %0, double %1, double %2, ptr noundef %3, ptr noundef %4) #0 {
  %6 = alloca %struct.pointf_s, align 8
  %7 = alloca ptr, align 8
  %8 = alloca ptr, align 8
  %9 = alloca ptr, align 8
  %10 = alloca ptr, align 8
  %11 = alloca i32, align 4
  %12 = alloca ptr, align 8
  %13 = alloca i32, align 4
  %14 = alloca ptr, align 8
  %15 = alloca ptr, align 8
  %16 = getelementptr inbounds nuw { double, double }, ptr %6, i32 0, i32 0
  store double %1, ptr %16, align 8
  %17 = getelementptr inbounds nuw { double, double }, ptr %6, i32 0, i32 1
  store double %2, ptr %17, align 8
  store ptr %0, ptr %7, align 8, !tbaa !3
  store ptr %3, ptr %8, align 8, !tbaa !8
  store ptr %4, ptr %9, align 8, !tbaa !10
  call void @llvm.lifetime.start.p0(i64 8, ptr %10) #13
  %18 = load i16, ptr @Ndim, align 2, !tbaa !12
  %19 = zext i16 %18 to i32
  %20 = load ptr, ptr %7, align 8, !tbaa !3
  %21 = call i32 @agnnodes(ptr noundef %20)
  %22 = mul nsw i32 %19, %21
  %23 = sext i32 %22 to i64
  %24 = call ptr @gv_calloc(i64 noundef %23, i64 noundef 8)
  store ptr %24, ptr %10, align 8, !tbaa !14
  call void @llvm.lifetime.start.p0(i64 4, ptr %11) #13
  store i32 0, ptr %11, align 4, !tbaa !16
  call void @llvm.lifetime.start.p0(i64 8, ptr %12) #13
  %25 = load ptr, ptr %7, align 8, !tbaa !3
  %26 = call ptr @agfstnode(ptr noundef %25)
  store ptr %26, ptr %12, align 8, !tbaa !18
  br label %27

27:                                               ; preds = %78, %5
  %28 = load ptr, ptr %12, align 8, !tbaa !18
  %29 = icmp ne ptr %28, null
  br i1 %29, label %31, label %30

30:                                               ; preds = %27
  call void @llvm.lifetime.end.p0(i64 8, ptr %12) #13
  br label %82

31:                                               ; preds = %27
  %32 = load ptr, ptr %9, align 8, !tbaa !10
  %33 = icmp ne ptr %32, null
  br i1 %33, label %34, label %41

34:                                               ; preds = %31
  %35 = load ptr, ptr %12, align 8, !tbaa !18
  %36 = call ptr @agnameof(ptr noundef %35)
  %37 = call zeroext i1 @startswith(ptr noundef %36, ptr noundef @.str)
  br i1 %37, label %38, label %41

38:                                               ; preds = %34
  %39 = load i32, ptr %11, align 4, !tbaa !16
  %40 = add nsw i32 %39, 1
  store i32 %40, ptr %11, align 4, !tbaa !16
  br label %41

41:                                               ; preds = %38, %34, %31
  call void @llvm.lifetime.start.p0(i64 4, ptr %13) #13
  %42 = load ptr, ptr %12, align 8, !tbaa !18
  %43 = getelementptr inbounds nuw %struct.Agobj_s, ptr %42, i32 0, i32 1
  %44 = load ptr, ptr %43, align 8, !tbaa !20
  %45 = getelementptr inbounds nuw %struct.Agnodeinfo_t, ptr %44, i32 0, i32 19
  %46 = load i32, ptr %45, align 4, !tbaa !25
  store i32 %46, ptr %13, align 4, !tbaa !16
  %47 = load ptr, ptr %12, align 8, !tbaa !18
  %48 = getelementptr inbounds nuw %struct.Agobj_s, ptr %47, i32 0, i32 1
  %49 = load ptr, ptr %48, align 8, !tbaa !20
  %50 = getelementptr inbounds nuw %struct.Agnodeinfo_t, ptr %49, i32 0, i32 4
  %51 = load double, ptr %50, align 8, !tbaa !38
  %52 = getelementptr inbounds nuw %struct.pointf_s, ptr %6, i32 0, i32 0
  %53 = load double, ptr %52, align 8, !tbaa !39
  %54 = call double @llvm.fmuladd.f64(double %51, double 5.000000e-01, double %53)
  %55 = load ptr, ptr %10, align 8, !tbaa !14
  %56 = load i32, ptr %13, align 4, !tbaa !16
  %57 = load i16, ptr @Ndim, align 2, !tbaa !12
  %58 = zext i16 %57 to i32
  %59 = mul nsw i32 %56, %58
  %60 = sext i32 %59 to i64
  %61 = getelementptr inbounds double, ptr %55, i64 %60
  store double %54, ptr %61, align 8, !tbaa !40
  %62 = load ptr, ptr %12, align 8, !tbaa !18
  %63 = getelementptr inbounds nuw %struct.Agobj_s, ptr %62, i32 0, i32 1
  %64 = load ptr, ptr %63, align 8, !tbaa !20
  %65 = getelementptr inbounds nuw %struct.Agnodeinfo_t, ptr %64, i32 0, i32 5
  %66 = load double, ptr %65, align 8, !tbaa !41
  %67 = getelementptr inbounds nuw %struct.pointf_s, ptr %6, i32 0, i32 1
  %68 = load double, ptr %67, align 8, !tbaa !42
  %69 = call double @llvm.fmuladd.f64(double %66, double 5.000000e-01, double %68)
  %70 = load ptr, ptr %10, align 8, !tbaa !14
  %71 = load i32, ptr %13, align 4, !tbaa !16
  %72 = load i16, ptr @Ndim, align 2, !tbaa !12
  %73 = zext i16 %72 to i32
  %74 = mul nsw i32 %71, %73
  %75 = add nsw i32 %74, 1
  %76 = sext i32 %75 to i64
  %77 = getelementptr inbounds double, ptr %70, i64 %76
  store double %69, ptr %77, align 8, !tbaa !40
  call void @llvm.lifetime.end.p0(i64 4, ptr %13) #13
  br label %78

78:                                               ; preds = %41
  %79 = load ptr, ptr %7, align 8, !tbaa !3
  %80 = load ptr, ptr %12, align 8, !tbaa !18
  %81 = call ptr @agnxtnode(ptr noundef %79, ptr noundef %80)
  store ptr %81, ptr %12, align 8, !tbaa !18
  br label %27, !llvm.loop !43

82:                                               ; preds = %30
  %83 = load ptr, ptr %9, align 8, !tbaa !10
  %84 = icmp ne ptr %83, null
  br i1 %84, label %85, label %123

85:                                               ; preds = %82
  %86 = load i32, ptr %11, align 4, !tbaa !16
  %87 = icmp ne i32 %86, 0
  br i1 %87, label %88, label %123

88:                                               ; preds = %85
  call void @llvm.lifetime.start.p0(i64 8, ptr %14) #13
  %89 = load i32, ptr %11, align 4, !tbaa !16
  %90 = sext i32 %89 to i64
  %91 = call ptr @gv_calloc(i64 noundef %90, i64 noundef 4)
  store ptr %91, ptr %14, align 8, !tbaa !8
  store i32 0, ptr %11, align 4, !tbaa !16
  call void @llvm.lifetime.start.p0(i64 8, ptr %15) #13
  %92 = load ptr, ptr %7, align 8, !tbaa !3
  %93 = call ptr @agfstnode(ptr noundef %92)
  store ptr %93, ptr %15, align 8, !tbaa !18
  br label %94

94:                                               ; preds = %114, %88
  %95 = load ptr, ptr %15, align 8, !tbaa !18
  %96 = icmp ne ptr %95, null
  br i1 %96, label %98, label %97

97:                                               ; preds = %94
  call void @llvm.lifetime.end.p0(i64 8, ptr %15) #13
  br label %118

98:                                               ; preds = %94
  %99 = load ptr, ptr %15, align 8, !tbaa !18
  %100 = call ptr @agnameof(ptr noundef %99)
  %101 = call zeroext i1 @startswith(ptr noundef %100, ptr noundef @.str)
  br i1 %101, label %102, label %113

102:                                              ; preds = %98
  %103 = load ptr, ptr %15, align 8, !tbaa !18
  %104 = getelementptr inbounds nuw %struct.Agobj_s, ptr %103, i32 0, i32 1
  %105 = load ptr, ptr %104, align 8, !tbaa !20
  %106 = getelementptr inbounds nuw %struct.Agnodeinfo_t, ptr %105, i32 0, i32 19
  %107 = load i32, ptr %106, align 4, !tbaa !25
  %108 = load ptr, ptr %14, align 8, !tbaa !8
  %109 = load i32, ptr %11, align 4, !tbaa !16
  %110 = add nsw i32 %109, 1
  store i32 %110, ptr %11, align 4, !tbaa !16
  %111 = sext i32 %109 to i64
  %112 = getelementptr inbounds i32, ptr %108, i64 %111
  store i32 %107, ptr %112, align 4, !tbaa !16
  br label %113

113:                                              ; preds = %102, %98
  br label %114

114:                                              ; preds = %113
  %115 = load ptr, ptr %7, align 8, !tbaa !3
  %116 = load ptr, ptr %15, align 8, !tbaa !18
  %117 = call ptr @agnxtnode(ptr noundef %115, ptr noundef %116)
  store ptr %117, ptr %15, align 8, !tbaa !18
  br label %94, !llvm.loop !45

118:                                              ; preds = %97
  %119 = load ptr, ptr %14, align 8, !tbaa !8
  %120 = load ptr, ptr %9, align 8, !tbaa !10
  store ptr %119, ptr %120, align 8, !tbaa !8
  %121 = load i32, ptr %11, align 4, !tbaa !16
  %122 = load ptr, ptr %8, align 8, !tbaa !8
  store i32 %121, ptr %122, align 4, !tbaa !16
  call void @llvm.lifetime.end.p0(i64 8, ptr %14) #13
  br label %123

123:                                              ; preds = %118, %85, %82
  %124 = load ptr, ptr %10, align 8, !tbaa !14
  call void @llvm.lifetime.end.p0(i64 4, ptr %11) #13
  call void @llvm.lifetime.end.p0(i64 8, ptr %10) #13
  ret ptr %124
}