; Function Attrs: nounwind uwtable
define noalias noundef ptr @getSizes(ptr noundef %0, double %1, double %2, ptr noundef writeonly captures(none) %3, ptr noundef writeonly captures(address_is_null) %4) local_unnamed_addr #0 {
  %6 = load i16, ptr @Ndim, align 2, !tbaa !3
  %7 = zext i16 %6 to i32
  %8 = tail call i32 @agnnodes(ptr noundef %0) #20
  %9 = mul nsw i32 %8, %7
  %10 = sext i32 %9 to i64
  %.not.i = icmp eq i32 %9, 0
  br i1 %.not.i, label %.thread.i, label %12

.thread.i:                                        ; preds = %5
  %11 = tail call noalias ptr @calloc(i64 noundef 0, i64 noundef 8) #21
  br label %gv_calloc.exit

12:                                               ; preds = %5
  %mul.ov.i = icmp slt i32 %9, 0
  br i1 %mul.ov.i, label %13, label %16

13:                                               ; preds = %12
  %14 = load ptr, ptr @stderr, align 8, !tbaa !7
  %15 = tail call i32 (ptr, ptr, ...) @fprintf(ptr noundef %14, ptr noundef nonnull @.str.11, i64 noundef %10, i64 noundef 8) #22
  tail call fastcc void @graphviz_exit() #23
  unreachable

16:                                               ; preds = %12
  %17 = tail call noalias ptr @calloc(i64 noundef %10, i64 noundef 8) #21
  %18 = icmp eq ptr %17, null
  br i1 %18, label %19, label %gv_calloc.exit

19:                                               ; preds = %16
  %20 = load ptr, ptr @stderr, align 8, !tbaa !7
  %21 = shl nuw nsw i64 %10, 3
  %22 = tail call i32 (ptr, ptr, ...) @fprintf(ptr noundef %20, ptr noundef nonnull @.str.12, i64 noundef %21) #22
  tail call fastcc void @graphviz_exit() #23
  unreachable

gv_calloc.exit:                                   ; preds = %.thread.i, %16
  %23 = phi ptr [ %11, %.thread.i ], [ %17, %16 ]
  %24 = tail call ptr @agfstnode(ptr noundef %0) #20
  %.not41 = icmp eq ptr %24, null
  br i1 %.not41, label %._crit_edge.thread, label %.lr.ph

.lr.ph:                                           ; preds = %gv_calloc.exit
  %.not35 = icmp eq ptr %4, null
  br i1 %.not35, label %.lr.ph.split.us, label %.lr.ph.split

.lr.ph.split.us:                                  ; preds = %.lr.ph, %.lr.ph.split.us
  %.03242.us = phi ptr [ %41, %.lr.ph.split.us ], [ %24, %.lr.ph ]
  %25 = getelementptr inbounds nuw i8, ptr %.03242.us, i64 16
  %26 = load ptr, ptr %25, align 8, !tbaa !10
  %27 = getelementptr inbounds nuw i8, ptr %26, i64 164
  %28 = load i32, ptr %27, align 4, !tbaa !16
  %29 = getelementptr inbounds nuw i8, ptr %26, i64 48
  %30 = load double, ptr %29, align 8, !tbaa !32
  %31 = tail call double @llvm.fmuladd.f64(double %30, double 5.000000e-01, double %1)
  %32 = load i16, ptr @Ndim, align 2, !tbaa !3
  %33 = zext i16 %32 to i32
  %34 = mul nsw i32 %28, %33
  %35 = sext i32 %34 to i64
  %36 = getelementptr inbounds double, ptr %23, i64 %35
  store double %31, ptr %36, align 8, !tbaa !33
  %37 = getelementptr inbounds nuw i8, ptr %26, i64 56
  %38 = load double, ptr %37, align 8, !tbaa !34
  %39 = tail call double @llvm.fmuladd.f64(double %38, double 5.000000e-01, double %2)
  %40 = getelementptr i8, ptr %36, i64 8
  store double %39, ptr %40, align 8, !tbaa !33
  %41 = tail call ptr @agnxtnode(ptr noundef %0, ptr noundef nonnull %.03242.us) #20
  %.not.us = icmp eq ptr %41, null
  br i1 %.not.us, label %._crit_edge.thread, label %.lr.ph.split.us, !llvm.loop !35

._crit_edge:                                      ; preds = %.lr.ph.split
  %.not53 = icmp eq i32 %spec.select, 0
  br i1 %.not53, label %._crit_edge.thread, label %63

.lr.ph.split:                                     ; preds = %.lr.ph, %.lr.ph.split
  %.03143 = phi i32 [ %spec.select, %.lr.ph.split ], [ 0, %.lr.ph ]
  %.03242 = phi ptr [ %62, %.lr.ph.split ], [ %24, %.lr.ph ]
  %42 = tail call ptr @agnameof(ptr noundef nonnull %.03242) #20
  %43 = tail call i32 @strncmp(ptr noundef nonnull readonly dereferenceable(1) %42, ptr noundef nonnull dereferenceable(12) @.str, i64 noundef 11) #24
  %44 = icmp eq i32 %43, 0
  %45 = zext i1 %44 to i32
  %spec.select = add nuw nsw i32 %.03143, %45
  %46 = getelementptr inbounds nuw i8, ptr %.03242, i64 16
  %47 = load ptr, ptr %46, align 8, !tbaa !10
  %48 = getelementptr inbounds nuw i8, ptr %47, i64 164
  %49 = load i32, ptr %48, align 4, !tbaa !16
  %50 = getelementptr inbounds nuw i8, ptr %47, i64 48
  %51 = load double, ptr %50, align 8, !tbaa !32
  %52 = tail call double @llvm.fmuladd.f64(double %51, double 5.000000e-01, double %1)
  %53 = load i16, ptr @Ndim, align 2, !tbaa !3
  %54 = zext i16 %53 to i32
  %55 = mul nsw i32 %49, %54
  %56 = sext i32 %55 to i64
  %57 = getelementptr inbounds double, ptr %23, i64 %56
  store double %52, ptr %57, align 8, !tbaa !33
  %58 = getelementptr inbounds nuw i8, ptr %47, i64 56
  %59 = load double, ptr %58, align 8, !tbaa !34
  %60 = tail call double @llvm.fmuladd.f64(double %59, double 5.000000e-01, double %2)
  %61 = getelementptr i8, ptr %57, i64 8
  store double %60, ptr %61, align 8, !tbaa !33
  %62 = tail call ptr @agnxtnode(ptr noundef %0, ptr noundef nonnull %.03242) #20
  %.not = icmp eq ptr %62, null
  br i1 %.not, label %._crit_edge, label %.lr.ph.split, !llvm.loop !35

63:                                               ; preds = %._crit_edge
  %64 = zext nneg i32 %spec.select to i64
  %65 = tail call noalias ptr @calloc(i64 noundef %64, i64 noundef 4) #21
  %66 = icmp eq ptr %65, null
  br i1 %66, label %67, label %gv_calloc.exit40

67:                                               ; preds = %63
  %68 = load ptr, ptr @stderr, align 8, !tbaa !7
  %69 = shl nuw nsw i64 %64, 2
  %70 = tail call i32 (ptr, ptr, ...) @fprintf(ptr noundef %68, ptr noundef nonnull @.str.12, i64 noundef %69) #22
  tail call fastcc void @graphviz_exit() #23
  unreachable

gv_calloc.exit40:                                 ; preds = %63
  %71 = tail call ptr @agfstnode(ptr noundef %0) #20
  %.not3444 = icmp eq ptr %71, null
  br i1 %.not3444, label %._crit_edge48, label %.lr.ph47

._crit_edge48:                                    ; preds = %83, %gv_calloc.exit40
  %.2.lcssa = phi i32 [ 0, %gv_calloc.exit40 ], [ %.3, %83 ]
  store ptr %65, ptr %4, align 8, !tbaa !37
  store i32 %.2.lcssa, ptr %3, align 4, !tbaa !39
  br label %._crit_edge.thread

.lr.ph47:                                         ; preds = %gv_calloc.exit40, %83
  %.046 = phi ptr [ %84, %83 ], [ %71, %gv_calloc.exit40 ]
  %.245 = phi i32 [ %.3, %83 ], [ 0, %gv_calloc.exit40 ]
  %72 = tail call ptr @agnameof(ptr noundef nonnull %.046) #20
  %73 = tail call i32 @strncmp(ptr noundef nonnull readonly dereferenceable(1) %72, ptr noundef nonnull dereferenceable(12) @.str, i64 noundef 11) #24
  %74 = icmp eq i32 %73, 0
  br i1 %74, label %75, label %83

75:                                               ; preds = %.lr.ph47
  %76 = getelementptr inbounds nuw i8, ptr %.046, i64 16
  %77 = load ptr, ptr %76, align 8, !tbaa !10
  %78 = getelementptr inbounds nuw i8, ptr %77, i64 164
  %79 = load i32, ptr %78, align 4, !tbaa !16
  %80 = add nsw i32 %.245, 1
  %81 = sext i32 %.245 to i64
  %82 = getelementptr inbounds i32, ptr %65, i64 %81
  store i32 %79, ptr %82, align 4, !tbaa !39
  br label %83

83:                                               ; preds = %.lr.ph47, %75
  %.3 = phi i32 [ %80, %75 ], [ %.245, %.lr.ph47 ]
  %84 = tail call ptr @agnxtnode(ptr noundef %0, ptr noundef nonnull %.046) #20
  %.not34 = icmp eq ptr %84, null
  br i1 %.not34, label %._crit_edge48, label %.lr.ph47, !llvm.loop !40

._crit_edge.thread:                               ; preds = %.lr.ph.split.us, %gv_calloc.exit, %._crit_edge48, %._crit_edge
  ret ptr %23
}